; Function Attrs: mustprogress nofree norecurse nosync nounwind willreturn memory(argmem: readwrite) uwtable
define void @_ZN8WasmEdge8Executor8Executor13runDataDropOpERNS_7Runtime8Instance12DataInstanceE(ptr dead_on_unwind noalias nocapture writable writeonly sret(%"class.cxx20::expected") align 4 %0, ptr nocapture noundef nonnull readnone align 8 dereferenceable(408) %1, ptr nocapture noundef nonnull align 8 dereferenceable(32) %2) local_unnamed_addr #3 align 2 personality ptr @__gxx_personality_v0 {
  %4 = getelementptr inbounds i8, ptr %2, i64 8
  %5 = load ptr, ptr %4, align 8
  %6 = getelementptr inbounds i8, ptr %2, i64 16
  %7 = load ptr, ptr %6, align 8
  %.not.i.i.i = icmp eq ptr %7, %5
  br i1 %.not.i.i.i, label %_ZN8WasmEdge7Runtime8Instance12DataInstance5clearEv.exit, label %8

8:                                                ; preds = %3
  store ptr %5, ptr %6, align 8
  br label %_ZN8WasmEdge7Runtime8Instance12DataInstance5clearEv.exit

_ZN8WasmEdge7Runtime8Instance12DataInstance5clearEv.exit: ; preds = %3, %8
  store i64 1, ptr %0, align 4
  ret void
}